; Function Attrs: nounwind uwtable
define dso_local range(i64 0, 2) i64 @multirange_upper_inc(ptr noundef readonly captures(none) %0) local_unnamed_addr #0 {
  %2 = alloca %struct.RangeBound, align 8
  %3 = alloca %struct.RangeBound, align 8
  %4 = getelementptr inbounds nuw i8, ptr %0, i64 32
  %5 = load i64, ptr %4, align 8
  %6 = inttoptr i64 %5 to ptr
  %7 = tail call ptr @pg_detoast_datum(ptr noundef %6) #11
  call void @llvm.lifetime.start.p0(i64 16, ptr nonnull %2) #11
  call void @llvm.lifetime.start.p0(i64 16, ptr nonnull %3) #11
  %8 = getelementptr inbounds nuw i8, ptr %7, i64 8
  %9 = load i32, ptr %8, align 4
  %10 = icmp eq i32 %9, 0
  br i1 %10, label %38, label %11

11:                                               ; preds = %1
  %12 = getelementptr inbounds nuw i8, ptr %7, i64 4
  %13 = load i32, ptr %12, align 4
  %14 = load ptr, ptr %0, align 8
  %15 = getelementptr inbounds nuw i8, ptr %14, i64 24
  %16 = load ptr, ptr %15, align 8
  %17 = icmp eq ptr %16, null
  br i1 %17, label %20, label %18

18:                                               ; preds = %11
  %19 = load i32, ptr %16, align 8
  %.not.i = icmp eq i32 %19, %13
  br i1 %.not.i, label %multirange_get_typcache.exit, label %20

20:                                               ; preds = %18, %11
  %21 = tail call ptr @lookup_type_cache(i32 noundef %13, i32 noundef 65536) #11
  %22 = getelementptr inbounds nuw i8, ptr %21, i64 440
  %23 = load ptr, ptr %22, align 8
  %24 = icmp eq ptr %23, null
  br i1 %24, label %25, label %28

25:                                               ; preds = %20
  %26 = tail call zeroext i1 @errstart_cold(i32 noundef 21, ptr noundef null) #13
  tail call void @llvm.assume(i1 %26)
  %27 = tail call i32 (ptr, ...) @errmsg_internal(ptr noundef nonnull @.str.9, i32 noundef %13) #11
  tail call void @errfinish(ptr noundef nonnull @.str.2, i32 noundef 557, ptr noundef nonnull @__func__.multirange_get_typcache) #11
  unreachable

28:                                               ; preds = %20
  %29 = load ptr, ptr %0, align 8
  %30 = getelementptr inbounds nuw i8, ptr %29, i64 24
  store ptr %21, ptr %30, align 8
  %.pre = load i32, ptr %8, align 4
  br label %multirange_get_typcache.exit

multirange_get_typcache.exit:                     ; preds = %18, %28
  %31 = phi i32 [ %.pre, %28 ], [ %9, %18 ]
  %.0.i = phi ptr [ %21, %28 ], [ %16, %18 ]
  %32 = getelementptr inbounds nuw i8, ptr %.0.i, i64 440
  %33 = load ptr, ptr %32, align 8
  %34 = add i32 %31, -1
  call void @multirange_get_bounds(ptr noundef %33, ptr noundef nonnull %7, i32 noundef %34, ptr noundef nonnull %2, ptr noundef nonnull %3)
  %35 = getelementptr inbounds nuw i8, ptr %3, i64 9
  %36 = load i8, ptr %35, align 1, !range !22, !noundef !23
  %37 = zext nneg i8 %36 to i64
  br label %38

38:                                               ; preds = %1, %multirange_get_typcache.exit
  %.0 = phi i64 [ %37, %multirange_get_typcache.exit ], [ 0, %1 ]
  call void @llvm.lifetime.end.p0(i64 16, ptr nonnull %3) #11
  call void @llvm.lifetime.end.p0(i64 16, ptr nonnull %2) #11
  ret i64 %.0
}